; Function Attrs: mustprogress nounwind uwtable
define hidden noundef i32 @_ZN14MacroAssembler17load_signed_shortE8Register7Address(ptr noundef nonnull align 8 dereferenceable(40) %0, i32 %1, ptr noundef %2) local_unnamed_addr #0 align 2 {
  %4 = alloca %class.Address, align 8
  %5 = getelementptr inbounds i8, ptr %0, i64 8
  %6 = load ptr, ptr %5, align 8
  %7 = getelementptr inbounds i8, ptr %6, i64 16
  %8 = load ptr, ptr %7, align 8
  %9 = load ptr, ptr %6, align 8
  %10 = ptrtoint ptr %8 to i64
  %11 = ptrtoint ptr %9 to i64
  %12 = sub i64 %10, %11
  %13 = trunc i64 %12 to i32
  call void @llvm.memcpy.p0.p0.i64(ptr noundef nonnull align 8 dereferenceable(21) %4, ptr noundef nonnull align 8 dereferenceable(21) %2, i64 21, i1 false)
  %14 = getelementptr inbounds i8, ptr %4, i64 24
  %15 = getelementptr inbounds i8, ptr %2, i64 24
  %16 = load ptr, ptr %15, align 8
  %17 = getelementptr inbounds i8, ptr %16, i64 16
  %18 = load ptr, ptr %17, align 8
  call void %18(ptr noundef nonnull align 8 dereferenceable(20) %15, ptr noundef nonnull align 8 dereferenceable(40) %14) #18
  call void @_ZN9Assembler6movswlE8Register7Address(ptr noundef nonnull align 8 dereferenceable(40) %0, i32 %1, ptr noundef nonnull %4) #18
  ret i32 %13
}